Certificate:
    Data:
        Version: 3 (0x2)
        Serial Number: 2 (0x2)
    Signature Algorithm: sha256WithRSAEncryption
        Issuer: C=US, ST=CA, L=SanFrancisco, O=Fort-Funston, OU=MyOrganizationalUnit, CN=Fort-Funston CA/name=server/emailAddress=me@myhost.mydomain
        Validity
            Not Before: Apr 12 08:11:58 2018 GMT
            Not After : Apr  9 08:11:58 2028 GMT
        Subject: C=US, ST=CA, L=SanFrancisco, O=Fort-Funston, OU=MyOrganizationalUnit, CN=client1/name=server/emailAddress=me@myhost.mydomain
        Subject Public Key Info:
            Public Key Algorithm: rsaEncryption
                Public-Key: (2048 bit)
                Modulus:
                    00:dc:ec:6a:30:b0:59:e5:ef:f1:aa:04:f4:46:d9:
                    ed:72:fc:43:4d:18:8c:ea:33:3d:11:8f:f9:c6:c9:
                    d5:2c:2c:49:05:d1:c1:46:01:ad:a4:fb:38:44:6d:
                    67:21:f9:b6:e0:63:21:6e:c1:8e:3b:66:05:47:b3:
                    cf:44:8c:80:93:12:aa:02:e4:be:93:f3:91:ed:74:
                    78:e5:6b:96:e4:fb:8d:fa:2c:9e:fc:72:fb:ad:32:
                    d6:25:46:cc:21:2c:91:74:d5:7d:58:88:61:20:62:
                    b8:9e:47:c1:6a:d4:40:d0:c9:63:73:df:9f:4c:a0:
                    aa:9a:06:57:5f:35:0f:60:37:78:24:47:5a:f5:0e:
                    e1:d6:27:58:22:9d:d6:1e:23:5e:79:02:26:4c:34:
                    fa:cc:c0:d3:d6:68:4f:56:09:2f:3f:4e:38:c0:b4:
                    7c:c1:76:c4:7f:80:94:a6:78:20:62:12:94:08:9f:
                    ef:5d:f5:e2:fd:42:3c:c3:8d:28:c4:53:63:6b:90:
                    c0:d9:2b:2a:11:a1:70:fc:13:05:ca:69:47:35:f5:
                    b8:72:3c:b3:db:2a:f2:e5:ee:68:d0:9b:5b:17:cc:
                    64:8b:22:0e:6f:5d:e4:c5:c5:48:00:34:32:56:4e:
                    98:28:4c:39:07:ac:68:4b:6d:bd:0d:44:45:b9:ac:
                    f1:a9
                Exponent: 65537 (0x10001)
        X509v3 extensions:
            X509v3 Basic Constraints:
                CA:FALSE
            Netscape Comment:
                Easy-RSA Generated Certificate
            X509v3 Subject Key Identifier:
                F7:0F:BC:D2:D8:86:1F:D5:6F:D5:54:DB:8C:FD:31:FE:9A:98:19:CE
            X509v3 Authority Key Identifier:
                keyid:14:CD:FC:E0:E1:5D:32:47:C8:BC:DB:D4:FE:F3:2D:6C:E9:71:A4:9D
                DirName:/C=US/ST=CA/L=SanFrancisco/O=Fort-Funston/OU=MyOrganizationalUnit/CN=Fort-Funston CA/name=server/emailAddress=me@myhost.mydomain
                serial:DB:1A:66:53:63:A0:01:F7

            X509v3 Extended Key Usage:
                TLS Web Client Authentication
            X509v3 Key Usage:
                Digital Signature
            X509v3 Subject Alternative Name:
                DNS:client1
    Signature Algorithm: sha256WithRSAEncryption
         c7:2e:67:9f:b5:b5:c5:cf:f1:68:1e:d2:0c:60:de:d5:20:45:
         8a:8f:5f:d3:84:26:9e:81:2a:2a:44:75:87:44:8c:72:6e:1a:
         a9:f6:73:df:18:e4:e9:49:93:01:47:0f:76:f7:ad:3f:fe:fa:
         e4:c9:9e:02:d5:85:c0:65:50:d8:8e:ae:fa:12:9b:5d:4b:70:
         c1:a0:64:19:da:58:7c:fa:9a:ec:28:a5:41:c5:e5:34:26:1f:
         a1:5b:6f:09:fa:a1:0d:9b:83:ad:7c:2e:cd:5e:3d:75:96:1c:
         29:44:1b:90:00:f8:c1:05:73:48:f7:75:fe:0f:f0:52:ac:36:
         3a:78:c9:87:a1:d6:7f:86:e4:bc:45:3e:ae:23:9d:f0:6f:4b:
         cc:06:7e:8f:d8:fb:73:45:37:c8:8b:0f:a2:0c:f4:57:16:cd:
         aa:d1:9c:7d:23:e1:b5:e5:4d:cd:ec:69:38:da:6e:4d:88:01:
         85:ab:3a:94:47:8a:fe:90:f2:76:c3:a7:06:bd:b5:44:f0:5f:
         6f:e8:59:05:78:65:be:70:d9:5f:56:d5:e1:fb:57:4e:7a:42:
         2f:68:42:7e:79:0a:07:86:1f:e9:e1:d3:b9:45:3d:20:d9:f4:
         65:89:5e:e7:f6:ad:c7:70:61:9a:4b:5c:cc:e2:57:f1:51:6c:
         09:a7:37:0a
-----BEGIN CERTIFICATE-----
MIIFYTCCBEmgAwIBAgIBAjANBgkqhkiG9w0BAQsFADCBtTELMAkGA1UEBhMCVVMx
CzAJBgNVBAgTAkNBMRUwEwYDVQQHEwxTYW5GcmFuY2lzY28xFTATBgNVBAoTDEZv
cnQtRnVuc3RvbjEdMBsGA1UECxMUTXlPcmdhbml6YXRpb25hbFVuaXQxGDAWBgNV
BAMTD0ZvcnQtRnVuc3RvbiBDQTEPMA0GA1UEKRMGc2VydmVyMSEwHwYJKoZIhvcN
AQkBFhJtZUBteWhvc3QubXlkb21haW4wHhcNMTgwNDEyMDgxMTU4WhcNMjgwNDA5
MDgxMTU4WjCBrTELMAkGA1UEBhMCVVMxCzAJBgNVBAgTAkNBMRUwEwYDVQQHEwxT
YW5GcmFuY2lzY28xFTATBgNVBAoTDEZvcnQtRnVuc3RvbjEdMBsGA1UECxMUTXlP
cmdhbml6YXRpb25hbFVuaXQxEDAOBgNVBAMTB2NsaWVudDExDzANBgNVBCkTBnNl
cnZlcjEhMB8GCSqGSIb3DQEJARYSbWVAbXlob3N0Lm15ZG9tYWluMIIBIjANBgkq
hkiG9w0BAQEFAAOCAQ8AMIIBCgKCAQEA3OxqMLBZ5e/xqgT0RtntcvxDTRiM6jM9
EY/5xsnVLCxJBdHBRgGtpPs4RG1nIfm24GMhbsGOO2YFR7PPRIyAkxKqAuS+k/OR
7XR45WuW5PuN+iye/HL7rTLWJUbMISyRdNV9WIhhIGK4nkfBatRA0Mljc9+fTKCq
mgZXXzUPYDd4JEda9Q7h1idYIp3WHiNeeQImTDT6zMDT1mhPVgkvP044wLR8wXbE
f4CUpnggYhKUCJ/vXfXi/UI8w40oxFNja5DA2SsqEaFw/BMFymlHNfW4cjyz2yry
5e5o0JtbF8xkiyIOb13kxcVIADQyVk6YKEw5B6xoS229DURFuazxqQIDAQABo4IB
gDCCAXwwCQYDVR0TBAIwADAtBglghkgBhvhCAQ0EIBYeRWFzeS1SU0EgR2VuZXJh
dGVkIENlcnRpZmljYXRlMB0GA1UdDgQWBBT3D7zS2IYf1W/VVNuM/TH+mpgZzjCB
6gYDVR0jBIHiMIHfgBQUzfzg4V0yR8i829T+8y1s6XGknaGBu6SBuDCBtTELMAkG
A1UEBhMCVVMxCzAJBgNVBAgTAkNBMRUwEwYDVQQHEwxTYW5GcmFuY2lzY28xFTAT
BgNVBAoTDEZvcnQtRnVuc3RvbjEdMBsGA1UECxMUTXlPcmdhbml6YXRpb25hbFVu
aXQxGDAWBgNVBAMTD0ZvcnQtRnVuc3RvbiBDQTEPMA0GA1UEKRMGc2VydmVyMSEw
HwYJKoZIhvcNAQkBFhJtZUBteWhvc3QubXlkb21haW6CCQDbGmZTY6AB9zATBgNV
HSUEDDAKBggrBgEFBQcDAjALBgNVHQ8EBAMCB4AwEgYDVR0RBAswCYIHY2xpZW50
MTANBgkqhkiG9w0BAQsFAAOCAQEAxy5nn7W1xc/xaB7SDGDe1SBFio9f04QmnoEq
KkR1h0SMcm4aqfZz3xjk6UmTAUcPdvetP/765MmeAtWFwGVQ2I6u+hKbXUtwwaBk
GdpYfPqa7CilQcXlNCYfoVtvCfqhDZuDrXwuzV49dZYcKUQbkAD4wQVzSPd1/g/w
Uqw2OnjJh6HWf4bkvEU+riOd8G9LzAZ+j9j7c0U3yIsPogz0VxbNqtGcfSPhteVN
zexpONpuTYgBhas6lEeK/pDydsOnBr21RPBfb+hZBXhlvnDZX1bV4ftXTnpCL2hC
fnkKB4Yf6eHTuUU9INn0ZYle5/atx3BhmktczOJX8VFsCac3Cg==
-----END CERTIFICATE-----
