Certificate:
    Data:
        Version: 3 (0x2)
        Serial Number: 2 (0x2)
    Signature Algorithm: sha256WithRSAEncryption
        Issuer: C=RU, ST=RU, L=Krasnodar, O=VladimirGAVR, OU=TEST, CN=VladimirGAVR CA/name=server/emailAddress=gavrilenko40@gmail.com
        Validity
            Not Before: Apr  6 09:28:22 2018 GMT
            Not After : Apr  3 09:28:22 2028 GMT
        Subject: C=RU, ST=RU, L=Krasnodar, O=VladimirGAVR, OU=TEST, CN=client1/name=server/emailAddress=gavrilenko40@gmail.com
        Subject Public Key Info:
            Public Key Algorithm: rsaEncryption
                Public-Key: (2048 bit)
                Modulus:
                    00:be:37:4c:e0:3d:93:c7:f5:61:de:7f:ec:e6:23:
                    cb:68:b4:07:d5:dc:b8:a6:61:e2:c8:0c:3f:28:81:
                    a8:a9:c0:33:3a:83:fe:e3:68:cd:9f:ee:e7:50:5b:
                    4d:db:80:20:38:51:30:33:5c:b3:3d:60:24:8b:61:
                    d2:37:4f:f7:dd:86:f6:96:23:98:c0:23:80:8d:76:
                    e6:e3:0a:74:99:f5:ce:9e:cf:89:9a:13:11:f5:30:
                    5b:97:9d:be:9d:e9:05:20:c9:1b:b0:34:78:c4:9a:
                    df:e8:54:76:3c:00:53:67:cf:1b:82:f7:15:36:23:
                    d3:8e:6d:ca:1e:62:e4:b2:a6:5d:04:11:81:ac:63:
                    18:f0:79:d3:a1:e2:56:20:d0:d7:50:90:47:02:08:
                    a4:5d:7d:6c:c8:6f:37:39:d3:e2:0f:1e:4a:9e:90:
                    c1:1c:1b:51:44:74:77:a0:ec:32:f5:65:3f:3b:ab:
                    de:5b:4f:27:16:6d:07:5b:b0:1b:94:21:8a:98:28:
                    3b:17:87:f3:fb:88:30:2e:a7:db:07:bb:0f:b2:c5:
                    ae:4e:93:48:df:60:a2:29:b4:40:46:d9:1b:b8:36:
                    0a:03:2a:17:19:de:b4:8b:9b:77:5f:a8:cb:0e:e1:
                    19:61:ea:94:60:75:09:fc:3f:9c:7f:0c:03:39:a0:
                    6e:b5
                Exponent: 65537 (0x10001)
        X509v3 extensions:
            X509v3 Basic Constraints: 
                CA:FALSE
            Netscape Comment: 
                Easy-RSA Generated Certificate
            X509v3 Subject Key Identifier: 
                7D:16:1F:A4:B9:7F:15:DC:51:1E:C6:FC:51:8D:AE:7D:16:48:6D:04
            X509v3 Authority Key Identifier: 
                keyid:C1:82:C7:AB:AE:CD:3E:0D:74:D4:0E:7B:86:1D:1B:4A:B3:53:D4:0F
                DirName:/C=RU/ST=RU/L=Krasnodar/O=VladimirGAVR/OU=TEST/CN=VladimirGAVR CA/name=server/emailAddress=gavrilenko40@gmail.com
                serial:F3:52:D1:74:CD:48:48:BF

            X509v3 Extended Key Usage: 
                TLS Web Client Authentication
            X509v3 Key Usage: 
                Digital Signature
            X509v3 Subject Alternative Name: 
                DNS:client1
    Signature Algorithm: sha256WithRSAEncryption
         95:23:14:ee:70:ed:21:ba:ee:b0:6e:1d:bf:f2:08:2b:9d:f2:
         30:1f:14:d9:52:59:6b:67:ed:f8:e2:98:f1:00:27:2e:bb:86:
         7b:40:b9:3b:36:4f:93:a9:3a:87:9a:d9:a9:54:e5:fa:d7:45:
         23:6f:a3:62:a3:ac:df:d6:50:15:5e:28:63:f1:0b:15:5e:92:
         1c:49:fa:5e:c9:16:47:98:6e:2b:0c:0b:58:8d:97:7c:cc:65:
         38:c9:2d:d7:e2:66:5b:12:6b:2b:26:32:00:d1:b4:ab:3a:44:
         54:53:49:65:a3:04:76:90:69:c9:96:2a:69:25:95:28:0e:13:
         42:3e:47:19:b5:63:6a:cf:8a:01:bf:18:c1:7c:c9:11:2a:59:
         54:a0:b2:b9:14:03:f1:4e:c8:c5:66:fa:20:4e:72:43:09:3d:
         a7:6c:8a:c0:d1:83:db:e5:56:05:b9:38:84:81:ed:fc:98:ca:
         c3:cb:bf:5f:47:eb:69:c8:d5:cf:29:c5:f9:f9:7f:b1:fb:68:
         a1:51:03:fd:e9:c9:59:46:a7:8b:f2:66:1f:23:bf:c0:ea:1c:
         be:48:fe:5d:c8:94:67:4d:42:97:6c:75:b3:de:15:b9:c7:69:
         f2:71:f1:93:dc:43:a3:2a:66:0f:a8:90:64:06:2b:2f:70:29:
         fe:6a:57:46
-----BEGIN CERTIFICATE-----
MIIFNDCCBBygAwIBAgIBAjANBgkqhkiG9w0BAQsFADCBpjELMAkGA1UEBhMCUlUx
CzAJBgNVBAgTAlJVMRIwEAYDVQQHEwlLcmFzbm9kYXIxFTATBgNVBAoTDFZsYWRp
bWlyR0FWUjENMAsGA1UECxMEVEVTVDEYMBYGA1UEAxMPVmxhZGltaXJHQVZSIENB
MQ8wDQYDVQQpEwZzZXJ2ZXIxJTAjBgkqhkiG9w0BCQEWFmdhdnJpbGVua280MEBn
bWFpbC5jb20wHhcNMTgwNDA2MDkyODIyWhcNMjgwNDAzMDkyODIyWjCBnjELMAkG
A1UEBhMCUlUxCzAJBgNVBAgTAlJVMRIwEAYDVQQHEwlLcmFzbm9kYXIxFTATBgNV
BAoTDFZsYWRpbWlyR0FWUjENMAsGA1UECxMEVEVTVDEQMA4GA1UEAxMHY2xpZW50
MTEPMA0GA1UEKRMGc2VydmVyMSUwIwYJKoZIhvcNAQkBFhZnYXZyaWxlbmtvNDBA
Z21haWwuY29tMIIBIjANBgkqhkiG9w0BAQEFAAOCAQ8AMIIBCgKCAQEAvjdM4D2T
x/Vh3n/s5iPLaLQH1dy4pmHiyAw/KIGoqcAzOoP+42jNn+7nUFtN24AgOFEwM1yz
PWAki2HSN0/33Yb2liOYwCOAjXbm4wp0mfXOns+JmhMR9TBbl52+nekFIMkbsDR4
xJrf6FR2PABTZ88bgvcVNiPTjm3KHmLksqZdBBGBrGMY8HnToeJWINDXUJBHAgik
XX1syG83OdPiDx5KnpDBHBtRRHR3oOwy9WU/O6veW08nFm0HW7AblCGKmCg7F4fz
+4gwLqfbB7sPssWuTpNI32CiKbRARtkbuDYKAyoXGd60i5t3X6jLDuEZYeqUYHUJ
/D+cfwwDOaButQIDAQABo4IBcTCCAW0wCQYDVR0TBAIwADAtBglghkgBhvhCAQ0E
IBYeRWFzeS1SU0EgR2VuZXJhdGVkIENlcnRpZmljYXRlMB0GA1UdDgQWBBR9Fh+k
uX8V3FEexvxRja59FkhtBDCB2wYDVR0jBIHTMIHQgBTBgserrs0+DXTUDnuGHRtK
s1PUD6GBrKSBqTCBpjELMAkGA1UEBhMCUlUxCzAJBgNVBAgTAlJVMRIwEAYDVQQH
EwlLcmFzbm9kYXIxFTATBgNVBAoTDFZsYWRpbWlyR0FWUjENMAsGA1UECxMEVEVT
VDEYMBYGA1UEAxMPVmxhZGltaXJHQVZSIENBMQ8wDQYDVQQpEwZzZXJ2ZXIxJTAj
BgkqhkiG9w0BCQEWFmdhdnJpbGVua280MEBnbWFpbC5jb22CCQDzUtF0zUhIvzAT
BgNVHSUEDDAKBggrBgEFBQcDAjALBgNVHQ8EBAMCB4AwEgYDVR0RBAswCYIHY2xp
ZW50MTANBgkqhkiG9w0BAQsFAAOCAQEAlSMU7nDtIbrusG4dv/IIK53yMB8U2VJZ
a2ft+OKY8QAnLruGe0C5OzZPk6k6h5rZqVTl+tdFI2+jYqOs39ZQFV4oY/ELFV6S
HEn6XskWR5huKwwLWI2XfMxlOMkt1+JmWxJrKyYyANG0qzpEVFNJZaMEdpBpyZYq
aSWVKA4TQj5HGbVjas+KAb8YwXzJESpZVKCyuRQD8U7IxWb6IE5yQwk9p2yKwNGD
2+VWBbk4hIHt/JjKw8u/X0fracjVzynF+fl/sftooVED/enJWUani/JmHyO/wOoc
vkj+XciUZ01Cl2x1s94Vucdp8nHxk9xDoypmD6iQZAYrL3Ap/mpXRg==
-----END CERTIFICATE-----
